Archive member included because of file (symbol)

../../BSP/Debug\libBSP.a(at24c04.o)
                              ./lab8.o (at24c04_bytewrite)
../../BSP/Debug\libBSP.a(iic.o)
                              ./lab8.o (iic_init)
../../BSP/Debug\libBSP.a(system.o)
                              ./lab8.o (sys_init)
../../BSP/Debug\libBSP.a(timers.o)
                              ./lab8.o (timers_init)
../../BSP/Debug\libBSP.a(uart.o)
                              ./lab8.o (uart0_init)
c:/software/electronica/arm/eclipsearm/sourcery-g++-lite-arm-2011.03/bin/../lib/gcc/arm-none-eabi/4.5.2\libgcc.a(_udivsi3.o)
                              ../../BSP/Debug\libBSP.a(timers.o) (__aeabi_uidiv)
c:/software/electronica/arm/eclipsearm/sourcery-g++-lite-arm-2011.03/bin/../lib/gcc/arm-none-eabi/4.5.2\libgcc.a(_dvmd_tls.o)
                              c:/software/electronica/arm/eclipsearm/sourcery-g++-lite-arm-2011.03/bin/../lib/gcc/arm-none-eabi/4.5.2\libgcc.a(_udivsi3.o) (__aeabi_idiv0)

Memory Configuration

Name             Origin             Length             Attributes
*default*        0x00000000         0xffffffff

Linker script and memory map

LOAD ./lab8.o
LOAD ../../BSP/Debug\libBSP.a
START GROUP
LOAD c:/software/electronica/arm/eclipsearm/sourcery-g++-lite-arm-2011.03/bin/../lib/gcc/arm-none-eabi/4.5.2\libgcc.a
LOAD c:/software/electronica/arm/eclipsearm/sourcery-g++-lite-arm-2011.03/bin/../lib/gcc/arm-none-eabi/4.5.2/../../../../arm-none-eabi/lib\libc.a
END GROUP
                0x0c100000                . = 0xc100000

.text           0x0c100000     0x23ec
 *(.text)
 .text          0x0c100000      0x60c ./lab8.o
                0x0c100000                main
 .text          0x0c10060c       0xac ../../BSP/Debug\libBSP.a(at24c04.o)
                0x0c10060c                at24c04_clear
                0x0c100624                at24c04_bytewrite
                0x0c100650                at24c04_byteread
                0x0c100678                at24c04_load
                0x0c100698                at24c04_store
 .text          0x0c1006b8       0xb8 ../../BSP/Debug\libBSP.a(iic.o)
                0x0c1006b8                iic_init
                0x0c1006d0                iic_start
                0x0c1006fc                iic_putByte
                0x0c100720                iic_getByte
                0x0c10074c                iic_stop
 .text          0x0c100770      0xb58 ../../BSP/Debug\libBSP.a(system.o)
                0x0c1008fc                sys_init
                0x0c100ce0                isr_RESET_dummy
                0x0c100d0c                isr_DABORT_dummy
                0x0c100d38                isr_PABORT_dummy
                0x0c100d64                isr_FIQ_dummy
                0x0c100d90                isr_IRQ_dummy
                0x0c100dbc                isr_UNDEF_dummy
                0x0c100de8                isr_SWI_dummy
                0x0c100e14                isr_TICK_dummy
                0x0c100e40                isr_USB_dummy
                0x0c100e6c                isr_ADC_dummy
                0x0c100e98                isr_RTC_dummy
                0x0c100ec4                isr_KEYPAD_dummy
                0x0c100ef0                isr_TS_dummy
                0x0c100f1c                isr_UTXD1_dummy
                0x0c100f48                isr_UTXD0_dummy
                0x0c100f74                isr_SIO_dummy
                0x0c100fa0                isr_IIC_dummy
                0x0c100fcc                isr_URXD1_dummy
                0x0c100ff8                isr_URXD0_dummy
                0x0c101024                isr_TIMER5_dummy
                0x0c101050                isr_TIMER4_dummy
                0x0c10107c                isr_TIMER3_dummy
                0x0c1010a8                isr_TIMER2_dummy
                0x0c1010d4                isr_TIMER1_dummy
                0x0c101100                isr_TIMER0_dummy
                0x0c10112c                isr_UERR01_dummy
                0x0c101158                isr_WDT_dummy
                0x0c101184                isr_BDMA1_dummy
                0x0c1011b0                isr_BDMA0_dummy
                0x0c1011dc                isr_ZDMA1_dummy
                0x0c101208                isr_ZDMA0_dummy
                0x0c101234                isr_PB_dummy
                0x0c101260                isr_ETHERNET_dummy
                0x0c1012b0                sleep
 .text          0x0c1012c8      0x988 ../../BSP/Debug\libBSP.a(timers.o)
                0x0c1012c8                timers_init
                0x0c1013e8                timer3_delay_ms
                0x0c1014cc                sw_delay_ms
                0x0c101534                timer3_delay_s
                0x0c101620                sw_delay_s
                0x0c101688                timer3_start
                0x0c101738                timer3_stop
                0x0c10178c                timer3_start_timeout
                0x0c101844                timer3_timeout
                0x0c101880                timer0_open_tick
                0x0c101ac4                timer0_open_ms
                0x0c101bb8                timer0_close
 .text          0x0c101c50      0x684 ../../BSP/Debug\libBSP.a(uart.o)
                0x0c101c50                uart0_init
                0x0c101d10                uart0_putchar
                0x0c101d68                uart0_puts
                0x0c101dd0                uart0_putint
                0x0c101f80                uart0_puthex
                0x0c102038                uart0_getchar
                0x0c102080                uart0_gets
                0x0c102114                uart0_getint
                0x0c1021c4                uart0_gethex
 .text          0x0c1022d4      0x114 c:/software/electronica/arm/eclipsearm/sourcery-g++-lite-arm-2011.03/bin/../lib/gcc/arm-none-eabi/4.5.2\libgcc.a(_udivsi3.o)
                0x0c1022d4                __aeabi_uidiv
                0x0c1022d4                __udivsi3
                0x0c1023c8                __aeabi_uidivmod
 .text          0x0c1023e8        0x4 c:/software/electronica/arm/eclipsearm/sourcery-g++-lite-arm-2011.03/bin/../lib/gcc/arm-none-eabi/4.5.2\libgcc.a(_dvmd_tls.o)
                0x0c1023e8                __aeabi_idiv0
                0x0c1023e8                __aeabi_ldiv0

.glue_7         0x0c1023ec        0x0
 .glue_7        0x00000000        0x0 linker stubs

.glue_7t        0x0c1023ec        0x0
 .glue_7t       0x00000000        0x0 linker stubs

.vfp11_veneer   0x0c1023ec        0x0
 .vfp11_veneer  0x00000000        0x0 linker stubs

.v4_bx          0x0c1023ec        0x0
 .v4_bx         0x00000000        0x0 linker stubs

.rodata         0x0c1023ec      0x8b4
 *(.rodata)
 .rodata        0x0c1023ec      0x29c ./lab8.o
 .rodata        0x0c102688      0x618 ../../BSP/Debug\libBSP.a(system.o)

.data           0x0c102ca0        0x0
 *(.data)
 .data          0x0c102ca0        0x0 ./lab8.o
 .data          0x0c102ca0        0x0 ../../BSP/Debug\libBSP.a(at24c04.o)
 .data          0x0c102ca0        0x0 ../../BSP/Debug\libBSP.a(iic.o)
 .data          0x0c102ca0        0x0 ../../BSP/Debug\libBSP.a(system.o)
 .data          0x0c102ca0        0x0 ../../BSP/Debug\libBSP.a(timers.o)
 .data          0x0c102ca0        0x0 ../../BSP/Debug\libBSP.a(uart.o)
 .data          0x0c102ca0        0x0 c:/software/electronica/arm/eclipsearm/sourcery-g++-lite-arm-2011.03/bin/../lib/gcc/arm-none-eabi/4.5.2\libgcc.a(_udivsi3.o)
 .data          0x0c102ca0        0x0 c:/software/electronica/arm/eclipsearm/sourcery-g++-lite-arm-2011.03/bin/../lib/gcc/arm-none-eabi/4.5.2\libgcc.a(_dvmd_tls.o)

.bss            0x0c102ca0        0x8
 *(.bss)
 .bss           0x0c102ca0        0x0 ./lab8.o
 .bss           0x0c102ca0        0x0 ../../BSP/Debug\libBSP.a(at24c04.o)
 .bss           0x0c102ca0        0x0 ../../BSP/Debug\libBSP.a(iic.o)
 .bss           0x0c102ca0        0x0 ../../BSP/Debug\libBSP.a(system.o)
 .bss           0x0c102ca0        0x8 ../../BSP/Debug\libBSP.a(timers.o)
 .bss           0x0c102ca8        0x0 ../../BSP/Debug\libBSP.a(uart.o)
 .bss           0x0c102ca8        0x0 c:/software/electronica/arm/eclipsearm/sourcery-g++-lite-arm-2011.03/bin/../lib/gcc/arm-none-eabi/4.5.2\libgcc.a(_udivsi3.o)
 .bss           0x0c102ca8        0x0 c:/software/electronica/arm/eclipsearm/sourcery-g++-lite-arm-2011.03/bin/../lib/gcc/arm-none-eabi/4.5.2\libgcc.a(_dvmd_tls.o)
                0x0c102ca8                end = .
OUTPUT(lab8.elf elf32-littlearm)

.debug_abbrev   0x00000000      0x437
 .debug_abbrev  0x00000000       0x7e ./lab8.o
 .debug_abbrev  0x0000007e       0x92 ../../BSP/Debug\libBSP.a(at24c04.o)
 .debug_abbrev  0x00000110       0xb1 ../../BSP/Debug\libBSP.a(iic.o)
 .debug_abbrev  0x000001c1       0xba ../../BSP/Debug\libBSP.a(system.o)
 .debug_abbrev  0x0000027b       0xc8 ../../BSP/Debug\libBSP.a(timers.o)
 .debug_abbrev  0x00000343       0xf4 ../../BSP/Debug\libBSP.a(uart.o)

.debug_info     0x00000000      0xeee
 .debug_info    0x00000000      0x10a ./lab8.o
 .debug_info    0x0000010a      0x14b ../../BSP/Debug\libBSP.a(at24c04.o)
 .debug_info    0x00000255      0x13a ../../BSP/Debug\libBSP.a(iic.o)
 .debug_info    0x0000038f      0x665 ../../BSP/Debug\libBSP.a(system.o)
 .debug_info    0x000009f4      0x26d ../../BSP/Debug\libBSP.a(timers.o)
 .debug_info    0x00000c61      0x28d ../../BSP/Debug\libBSP.a(uart.o)

.debug_line     0x00000000      0x749
 .debug_line    0x00000000      0x196 ./lab8.o
 .debug_line    0x00000196       0x95 ../../BSP/Debug\libBSP.a(at24c04.o)
 .debug_line    0x0000022b       0x8e ../../BSP/Debug\libBSP.a(iic.o)
 .debug_line    0x000002b9      0x1ef ../../BSP/Debug\libBSP.a(system.o)
 .debug_line    0x000004a8      0x16f ../../BSP/Debug\libBSP.a(timers.o)
 .debug_line    0x00000617      0x132 ../../BSP/Debug\libBSP.a(uart.o)

.debug_macinfo  0x00000000    0x1d814
 .debug_macinfo
                0x00000000     0x538c ./lab8.o
 .debug_macinfo
                0x0000538c     0x4c7e ../../BSP/Debug\libBSP.a(at24c04.o)
 .debug_macinfo
                0x0000a00a     0x4c85 ../../BSP/Debug\libBSP.a(iic.o)
 .debug_macinfo
                0x0000ec8f     0x52b7 ../../BSP/Debug\libBSP.a(system.o)
 .debug_macinfo
                0x00013f46     0x4c7d ../../BSP/Debug\libBSP.a(timers.o)
 .debug_macinfo
                0x00018bc3     0x4c51 ../../BSP/Debug\libBSP.a(uart.o)

.debug_loc      0x00000000      0xc08
 .debug_loc     0x00000000       0x2c ./lab8.o
 .debug_loc     0x0000002c       0xdc ../../BSP/Debug\libBSP.a(at24c04.o)
 .debug_loc     0x00000108       0xdc ../../BSP/Debug\libBSP.a(iic.o)
 .debug_loc     0x000001e4      0x688 ../../BSP/Debug\libBSP.a(system.o)
 .debug_loc     0x0000086c      0x210 ../../BSP/Debug\libBSP.a(timers.o)
 .debug_loc     0x00000a7c      0x18c ../../BSP/Debug\libBSP.a(uart.o)

.debug_pubnames
                0x00000000      0x52d
 .debug_pubnames
                0x00000000       0x1b ./lab8.o
 .debug_pubnames
                0x0000001b       0x72 ../../BSP/Debug\libBSP.a(at24c04.o)
 .debug_pubnames
                0x0000008d       0x5a ../../BSP/Debug\libBSP.a(iic.o)
 .debug_pubnames
                0x000000e7      0x2b1 ../../BSP/Debug\libBSP.a(system.o)
 .debug_pubnames
                0x00000398       0xee ../../BSP/Debug\libBSP.a(timers.o)
 .debug_pubnames
                0x00000486       0xa7 ../../BSP/Debug\libBSP.a(uart.o)

.debug_pubtypes
                0x00000000      0x10a
 .debug_pubtypes
                0x00000000       0x32 ./lab8.o
 .debug_pubtypes
                0x00000032       0x27 ../../BSP/Debug\libBSP.a(at24c04.o)
 .debug_pubtypes
                0x00000059       0x27 ../../BSP/Debug\libBSP.a(iic.o)
 .debug_pubtypes
                0x00000080       0x27 ../../BSP/Debug\libBSP.a(system.o)
 .debug_pubtypes
                0x000000a7       0x32 ../../BSP/Debug\libBSP.a(timers.o)
 .debug_pubtypes
                0x000000d9       0x31 ../../BSP/Debug\libBSP.a(uart.o)

.debug_aranges  0x00000000       0xc0
 .debug_aranges
                0x00000000       0x20 ./lab8.o
 .debug_aranges
                0x00000020       0x20 ../../BSP/Debug\libBSP.a(at24c04.o)
 .debug_aranges
                0x00000040       0x20 ../../BSP/Debug\libBSP.a(iic.o)
 .debug_aranges
                0x00000060       0x20 ../../BSP/Debug\libBSP.a(system.o)
 .debug_aranges
                0x00000080       0x20 ../../BSP/Debug\libBSP.a(timers.o)
 .debug_aranges
                0x000000a0       0x20 ../../BSP/Debug\libBSP.a(uart.o)

.debug_str      0x00000000      0x520
 .debug_str     0x00000000       0xbb ./lab8.o
                                 0xd4 (size before relaxing)
 .debug_str     0x000000bb       0x76 ../../BSP/Debug\libBSP.a(at24c04.o)
                                0x109 (size before relaxing)
 .debug_str     0x00000131       0x4b ../../BSP/Debug\libBSP.a(iic.o)
                                 0xe6 (size before relaxing)
 .debug_str     0x0000017c      0x263 ../../BSP/Debug\libBSP.a(system.o)
                                0x2fe (size before relaxing)
 .debug_str     0x000003df       0xcb ../../BSP/Debug\libBSP.a(timers.o)
                                0x172 (size before relaxing)
 .debug_str     0x000004aa       0x76 ../../BSP/Debug\libBSP.a(uart.o)
                                0x132 (size before relaxing)

.comment        0x00000000       0x2a
 .comment       0x00000000       0x2a ./lab8.o
                                 0x2b (size before relaxing)
 .comment       0x00000000       0x2b ../../BSP/Debug\libBSP.a(at24c04.o)
 .comment       0x00000000       0x2b ../../BSP/Debug\libBSP.a(iic.o)
 .comment       0x00000000       0x2b ../../BSP/Debug\libBSP.a(system.o)
 .comment       0x00000000       0x2b ../../BSP/Debug\libBSP.a(timers.o)
 .comment       0x00000000       0x2b ../../BSP/Debug\libBSP.a(uart.o)

.ARM.attributes
                0x00000000       0x32
 .ARM.attributes
                0x00000000       0x32 ./lab8.o
 .ARM.attributes
                0x00000032       0x32 ../../BSP/Debug\libBSP.a(at24c04.o)
 .ARM.attributes
                0x00000064       0x32 ../../BSP/Debug\libBSP.a(iic.o)
 .ARM.attributes
                0x00000096       0x32 ../../BSP/Debug\libBSP.a(system.o)
 .ARM.attributes
                0x000000c8       0x32 ../../BSP/Debug\libBSP.a(timers.o)
 .ARM.attributes
                0x000000fa       0x32 ../../BSP/Debug\libBSP.a(uart.o)
 .ARM.attributes
                0x0000012c       0x1a c:/software/electronica/arm/eclipsearm/sourcery-g++-lite-arm-2011.03/bin/../lib/gcc/arm-none-eabi/4.5.2\libgcc.a(_udivsi3.o)
 .ARM.attributes
                0x00000146       0x18 c:/software/electronica/arm/eclipsearm/sourcery-g++-lite-arm-2011.03/bin/../lib/gcc/arm-none-eabi/4.5.2\libgcc.a(_dvmd_tls.o)

.debug_frame    0x00000000      0xad4
 .debug_frame   0x00000000       0x30 ./lab8.o
 .debug_frame   0x00000030       0xb0 ../../BSP/Debug\libBSP.a(at24c04.o)
 .debug_frame   0x000000e0       0xb0 ../../BSP/Debug\libBSP.a(iic.o)
 .debug_frame   0x00000190      0x65c ../../BSP/Debug\libBSP.a(system.o)
 .debug_frame   0x000007ec      0x194 ../../BSP/Debug\libBSP.a(timers.o)
 .debug_frame   0x00000980      0x134 ../../BSP/Debug\libBSP.a(uart.o)
 .debug_frame   0x00000ab4       0x20 c:/software/electronica/arm/eclipsearm/sourcery-g++-lite-arm-2011.03/bin/../lib/gcc/arm-none-eabi/4.5.2\libgcc.a(_udivsi3.o)
